target datalayout = "e-m:e-p270:32:32-p271:32:32-p272:64:64-i64:64-i128:128-f80:128-n8:16:32:64-S128"
target triple = "x86_64-unknown-linux-gnu"

%"class.std::__cxx11::basic_string" = type { %"struct.std::__cxx11::basic_string<char>::_Alloc_hider", i64, %union.anon }
%"struct.std::__cxx11::basic_string<char>::_Alloc_hider" = type { ptr }
%union.anon = type { i64, [8 x i8] }
%"class.Assimp::Importer" = type { ptr }
%"class.Assimp::ImporterPimpl" = type { ptr, i8, ptr, i8, %"class.std::vector.0", %"class.std::vector.5", ptr, %"class.std::__cxx11::basic_string", %"class.std::__exception_ptr::exception_ptr", %"class.std::map", %"class.std::map.16", %"class.std::map.21", %"class.std::map.26", %"class.std::map.31", i8, ptr }
%"class.std::vector.0" = type { %"struct.std::_Vector_base.1" }
%"struct.std::_Vector_base.1" = type { %"struct.std::_Vector_base<Assimp::BaseImporter *, std::allocator<Assimp::BaseImporter *>>::_Vector_impl" }
%"struct.std::_Vector_base<Assimp::BaseImporter *, std::allocator<Assimp::BaseImporter *>>::_Vector_impl" = type { %"struct.std::_Vector_base<Assimp::BaseImporter *, std::allocator<Assimp::BaseImporter *>>::_Vector_impl_data" }
%"struct.std::_Vector_base<Assimp::BaseImporter *, std::allocator<Assimp::BaseImporter *>>::_Vector_impl_data" = type { ptr, ptr, ptr }
%"class.std::vector.5" = type { %"struct.std::_Vector_base.6" }
%"struct.std::_Vector_base.6" = type { %"struct.std::_Vector_base<Assimp::BaseProcess *, std::allocator<Assimp::BaseProcess *>>::_Vector_impl" }
%"struct.std::_Vector_base<Assimp::BaseProcess *, std::allocator<Assimp::BaseProcess *>>::_Vector_impl" = type { %"struct.std::_Vector_base<Assimp::BaseProcess *, std::allocator<Assimp::BaseProcess *>>::_Vector_impl_data" }
%"struct.std::_Vector_base<Assimp::BaseProcess *, std::allocator<Assimp::BaseProcess *>>::_Vector_impl_data" = type { ptr, ptr, ptr }
%"class.std::__exception_ptr::exception_ptr" = type { ptr }
%"class.std::map" = type { %"class.std::_Rb_tree" }
%"class.std::_Rb_tree" = type { %"struct.std::_Rb_tree<unsigned int, std::pair<const unsigned int, int>, std::_Select1st<std::pair<const unsigned int, int>>, std::less<unsigned int>>::_Rb_tree_impl" }
%"struct.std::_Rb_tree<unsigned int, std::pair<const unsigned int, int>, std::_Select1st<std::pair<const unsigned int, int>>, std::less<unsigned int>>::_Rb_tree_impl" = type { %"struct.std::_Rb_tree_key_compare", %"struct.std::_Rb_tree_header" }
%"struct.std::_Rb_tree_key_compare" = type { %"struct.std::less" }
%"struct.std::less" = type { i8 }
%"struct.std::_Rb_tree_header" = type { %"struct.std::_Rb_tree_node_base", i64 }
%"struct.std::_Rb_tree_node_base" = type { i32, ptr, ptr, ptr }
%"class.std::map.16" = type { %"class.std::_Rb_tree.17" }
%"class.std::_Rb_tree.17" = type { %"struct.std::_Rb_tree<unsigned int, std::pair<const unsigned int, float>, std::_Select1st<std::pair<const unsigned int, float>>, std::less<unsigned int>>::_Rb_tree_impl" }
%"struct.std::_Rb_tree<unsigned int, std::pair<const unsigned int, float>, std::_Select1st<std::pair<const unsigned int, float>>, std::less<unsigned int>>::_Rb_tree_impl" = type { %"struct.std::_Rb_tree_key_compare", %"struct.std::_Rb_tree_header" }
%"class.std::map.21" = type { %"class.std::_Rb_tree.22" }
%"class.std::_Rb_tree.22" = type { %"struct.std::_Rb_tree<unsigned int, std::pair<const unsigned int, std::__cxx11::basic_string<char>>, std::_Select1st<std::pair<const unsigned int, std::__cxx11::basic_string<char>>>, std::less<unsigned int>>::_Rb_tree_impl" }
%"struct.std::_Rb_tree<unsigned int, std::pair<const unsigned int, std::__cxx11::basic_string<char>>, std::_Select1st<std::pair<const unsigned int, std::__cxx11::basic_string<char>>>, std::less<unsigned int>>::_Rb_tree_impl" = type { %"struct.std::_Rb_tree_key_compare", %"struct.std::_Rb_tree_header" }
%"class.std::map.26" = type { %"class.std::_Rb_tree.27" }
%"class.std::_Rb_tree.27" = type { %"struct.std::_Rb_tree<unsigned int, std::pair<const unsigned int, aiMatrix4x4t<float>>, std::_Select1st<std::pair<const unsigned int, aiMatrix4x4t<float>>>, std::less<unsigned int>>::_Rb_tree_impl" }
%"struct.std::_Rb_tree<unsigned int, std::pair<const unsigned int, aiMatrix4x4t<float>>, std::_Select1st<std::pair<const unsigned int, aiMatrix4x4t<float>>>, std::less<unsigned int>>::_Rb_tree_impl" = type { %"struct.std::_Rb_tree_key_compare", %"struct.std::_Rb_tree_header" }
%"class.std::map.31" = type { %"class.std::_Rb_tree.32" }
%"class.std::_Rb_tree.32" = type { %"struct.std::_Rb_tree<unsigned int, std::pair<const unsigned int, void *>, std::_Select1st<std::pair<const unsigned int, void *>>, std::less<unsigned int>>::_Rb_tree_impl" }
%"struct.std::_Rb_tree<unsigned int, std::pair<const unsigned int, void *>, std::_Select1st<std::pair<const unsigned int, void *>>, std::less<unsigned int>>::_Rb_tree_impl" = type { %"struct.std::_Rb_tree_key_compare", %"struct.std::_Rb_tree_header" }

; Function Attrs: mustprogress nounwind uwtable
define linkonce_odr noundef nonnull align 8 dereferenceable(8) ptr @_ZNSt6vectorIPN6Assimp12BaseImporterESaIS2_EEixEm(ptr noundef nonnull align 8 dereferenceable(24) %this, i64 noundef %__n) #0 comdat align 2 {
entry:
  %this.addr = alloca ptr, align 8
  %__n.addr = alloca i64, align 8
  store ptr %this, ptr %this.addr, align 8
  store i64 %__n, ptr %__n.addr, align 8
  %this1 = load ptr, ptr %this.addr, align 8
  %_M_impl = getelementptr inbounds %"struct.std::_Vector_base.1", ptr %this1, i32 0, i32 0
  %_M_start = getelementptr inbounds %"struct.std::_Vector_base<Assimp::BaseImporter *, std::allocator<Assimp::BaseImporter *>>::_Vector_impl_data", ptr %_M_impl, i32 0, i32 0
  %0 = load ptr, ptr %_M_start, align 8
  %1 = load i64, ptr %__n.addr, align 8
  %add.ptr = getelementptr inbounds ptr, ptr %0, i64 %1
  ret ptr %add.ptr
}

; Function Attrs: mustprogress nounwind uwtable
define linkonce_odr noundef i64 @_ZNKSt6vectorIPN6Assimp12BaseImporterESaIS2_EE4sizeEv(ptr noundef nonnull align 8 dereferenceable(24) %this) #0 comdat align 2 {
entry:
  %this.addr = alloca ptr, align 8
  store ptr %this, ptr %this.addr, align 8
  %this1 = load ptr, ptr %this.addr, align 8
  %_M_impl = getelementptr inbounds %"struct.std::_Vector_base.1", ptr %this1, i32 0, i32 0
  %_M_finish = getelementptr inbounds %"struct.std::_Vector_base<Assimp::BaseImporter *, std::allocator<Assimp::BaseImporter *>>::_Vector_impl_data", ptr %_M_impl, i32 0, i32 1
  %0 = load ptr, ptr %_M_finish, align 8
  %_M_impl2 = getelementptr inbounds %"struct.std::_Vector_base.1", ptr %this1, i32 0, i32 0
  %_M_start = getelementptr inbounds %"struct.std::_Vector_base<Assimp::BaseImporter *, std::allocator<Assimp::BaseImporter *>>::_Vector_impl_data", ptr %_M_impl2, i32 0, i32 0
  %1 = load ptr, ptr %_M_start, align 8
  %sub.ptr.lhs.cast = ptrtoint ptr %0 to i64
  %sub.ptr.rhs.cast = ptrtoint ptr %1 to i64
  %sub.ptr.sub = sub i64 %sub.ptr.lhs.cast, %sub.ptr.rhs.cast
  %sub.ptr.div = sdiv exact i64 %sub.ptr.sub, 8
  ret i64 %sub.ptr.div
}

; Function Attrs: mustprogress nounwind uwtable
define noundef ptr @_ZNK6Assimp8Importer11GetImporterEm(ptr noundef nonnull align 8 dereferenceable(8) %this, i64 noundef %index) #0 align 2 {
entry:
  %retval = alloca ptr, align 8
  %this.addr = alloca ptr, align 8
  %index.addr = alloca i64, align 8
  store ptr %this, ptr %this.addr, align 8
  store i64 %index, ptr %index.addr, align 8
  %this1 = load ptr, ptr %this.addr, align 8
  %0 = load i64, ptr %index.addr, align 8
  %pimpl = getelementptr inbounds %"class.Assimp::Importer", ptr %this1, i32 0, i32 0
  %1 = load ptr, ptr %pimpl, align 8
  %mImporter = getelementptr inbounds %"class.Assimp::ImporterPimpl", ptr %1, i32 0, i32 4
  %call = call noundef i64 @_ZNKSt6vectorIPN6Assimp12BaseImporterESaIS2_EE4sizeEv(ptr noundef nonnull align 8 dereferenceable(24) %mImporter) #14
  %cmp = icmp uge i64 %0, %call
  br i1 %cmp, label %if.then, label %if.end

if.then:                                          ; preds = %entry
  store ptr null, ptr %retval, align 8
  br label %return

if.end:                                           ; preds = %entry
  %pimpl2 = getelementptr inbounds %"class.Assimp::Importer", ptr %this1, i32 0, i32 0
  %2 = load ptr, ptr %pimpl2, align 8
  %mImporter3 = getelementptr inbounds %"class.Assimp::ImporterPimpl", ptr %2, i32 0, i32 4
  %3 = load i64, ptr %index.addr, align 8
  %call4 = call noundef nonnull align 8 dereferenceable(8) ptr @_ZNSt6vectorIPN6Assimp12BaseImporterESaIS2_EEixEm(ptr noundef nonnull align 8 dereferenceable(24) %mImporter3, i64 noundef %3) #14
  %4 = load ptr, ptr %call4, align 8
  store ptr %4, ptr %retval, align 8
  br label %return

return:                                           ; preds = %if.end, %if.then
  %5 = load ptr, ptr %retval, align 8
  ret ptr %5
}

; Function Attrs: mustprogress uwtable
define noundef ptr @_ZNK6Assimp8Importer11GetImporterEPKc(ptr noundef nonnull align 8 dereferenceable(8) %this, ptr noundef %szExtension) #2 align 2 {
entry:
  %this.addr = alloca ptr, align 8
  %szExtension.addr = alloca ptr, align 8
  store ptr %this, ptr %this.addr, align 8
  store ptr %szExtension, ptr %szExtension.addr, align 8
  %this1 = load ptr, ptr %this.addr, align 8
  %0 = load ptr, ptr %szExtension.addr, align 8
  %call = call noundef i64 @_ZNK6Assimp8Importer16GetImporterIndexEPKc(ptr noundef nonnull align 8 dereferenceable(8) %this1, ptr noundef %0)
  %call2 = call noundef ptr @_ZNK6Assimp8Importer11GetImporterEm(ptr noundef nonnull align 8 dereferenceable(8) %this1, i64 noundef %call)
  ret ptr %call2
}