; Function Attrs: mustprogress uwtable
define noundef ptr @_ZNK6Assimp8Importer11GetImporterEPKc(ptr nocapture noundef nonnull readonly align 8 dereferenceable(8) %this, ptr noundef %szExtension) local_unnamed_addr #2 align 2 {
entry:
  %call = tail call noundef i64 @_ZNK6Assimp8Importer16GetImporterIndexEPKc(ptr noundef nonnull align 8 dereferenceable(8) %this, ptr noundef %szExtension)
  %0 = load ptr, ptr %this, align 8
  %mImporter.i = getelementptr inbounds i8, ptr %0, i64 32
  %_M_finish.i.i = getelementptr inbounds i8, ptr %0, i64 40
  %1 = load ptr, ptr %_M_finish.i.i, align 8
  %2 = load ptr, ptr %mImporter.i, align 8
  %sub.ptr.lhs.cast.i.i = ptrtoint ptr %1 to i64
  %sub.ptr.rhs.cast.i.i = ptrtoint ptr %2 to i64
  %sub.ptr.sub.i.i = sub i64 %sub.ptr.lhs.cast.i.i, %sub.ptr.rhs.cast.i.i
  %sub.ptr.div.i.i = ashr exact i64 %sub.ptr.sub.i.i, 3
  %cmp.not.i = icmp ugt i64 %sub.ptr.div.i.i, %call
  br i1 %cmp.not.i, label %if.end.i, label %_ZNK6Assimp8Importer11GetImporterEm.exit

if.end.i:                                         ; preds = %entry
  %add.ptr.i.i = getelementptr inbounds ptr, ptr %2, i64 %call
  %3 = load ptr, ptr %add.ptr.i.i, align 8
  br label %_ZNK6Assimp8Importer11GetImporterEm.exit

_ZNK6Assimp8Importer11GetImporterEm.exit:         ; preds = %entry, %if.end.i
  %retval.0.i = phi ptr [ %3, %if.end.i ], [ null, %entry ]
  ret ptr %retval.0.i
}